; Function Attrs: mustprogress uwtable
define hidden void @_ZN11upolynomial12core_manager4trimER7svectorI3mpzjE(ptr noundef nonnull readonly align 8 captures(none) dereferenceable(272) %0, ptr noundef nonnull readonly align 8 captures(none) dereferenceable(8) %1) local_unnamed_addr #3 align 2 {
  %3 = load ptr, ptr %1, align 8, !tbaa !28
  %4 = icmp eq ptr %3, null
  br i1 %4, label %_ZN6vectorI3mpzLb0EjE6shrinkEj.exit, label %_ZNK6vectorI3mpzLb0EjE4sizeEv.exit

_ZNK6vectorI3mpzLb0EjE4sizeEv.exit:               ; preds = %2
  %5 = getelementptr inbounds i8, ptr %3, i64 -4
  %6 = load i32, ptr %5, align 4, !tbaa !27
  %.not12 = icmp eq i32 %6, 0
  br i1 %.not12, label %.critedge.thread, label %.lr.ph

.lr.ph:                                           ; preds = %_ZNK6vectorI3mpzLb0EjE4sizeEv.exit
  %7 = getelementptr inbounds nuw i8, ptr %0, i64 8
  %8 = zext i32 %6 to i64
  br label %9

9:                                                ; preds = %.lr.ph, %15
  %indvars.iv = phi i64 [ %8, %.lr.ph ], [ %10, %15 ]
  %10 = add nsw i64 %indvars.iv, -1
  %11 = load ptr, ptr %1, align 8, !tbaa !28
  %12 = getelementptr inbounds nuw %class.mpz, ptr %11, i64 %10
  %13 = load i32, ptr %12, align 8, !tbaa !8
  %14 = icmp eq i32 %13, 0
  br i1 %14, label %15, label %.critedge.thread.loopexit

15:                                               ; preds = %9
  %16 = load ptr, ptr %7, align 8, !tbaa !33
  tail call void @_ZN11mpz_managerILb0EE3delEPS0_R3mpz(ptr noundef nonnull align 8 dereferenceable(600) %16, ptr noundef nonnull align 8 dereferenceable(16) %12)
  %.not.wide = icmp eq i64 %10, 0
  br i1 %.not.wide, label %.critedge, label %9, !llvm.loop !42

.critedge:                                        ; preds = %15
  %.pr.pre = load ptr, ptr %1, align 8, !tbaa !28
  %.not.i = icmp eq ptr %.pr.pre, null
  br i1 %.not.i, label %_ZN6vectorI3mpzLb0EjE6shrinkEj.exit, label %.critedge.thread

.critedge.thread.loopexit:                        ; preds = %9
  %17 = trunc nuw i64 %indvars.iv to i32
  br label %.critedge.thread

.critedge.thread:                                 ; preds = %_ZNK6vectorI3mpzLb0EjE4sizeEv.exit, %.critedge.thread.loopexit, %.critedge
  %.011 = phi i32 [ 0, %.critedge ], [ %17, %.critedge.thread.loopexit ], [ 0, %_ZNK6vectorI3mpzLb0EjE4sizeEv.exit ]
  %18 = phi ptr [ %.pr.pre, %.critedge ], [ %11, %.critedge.thread.loopexit ], [ %3, %_ZNK6vectorI3mpzLb0EjE4sizeEv.exit ]
  %19 = getelementptr inbounds i8, ptr %18, i64 -4
  store i32 %.011, ptr %19, align 4, !tbaa !27
  br label %_ZN6vectorI3mpzLb0EjE6shrinkEj.exit

_ZN6vectorI3mpzLb0EjE6shrinkEj.exit:              ; preds = %2, %.critedge, %.critedge.thread
  ret void
}